; Function Attrs: mustprogress nounwind uwtable
define hidden void @_ZN6google14LogDestination13SetLoggerImplEPNS_4base6LoggerE(ptr noundef nonnull align 8 captures(address) dereferenceable(208) %0, ptr noundef %1) local_unnamed_addr #2 align 2 {
  %3 = getelementptr inbounds nuw i8, ptr %0, i64 200
  %4 = load ptr, ptr %3, align 8, !tbaa !76
  %5 = icmp eq ptr %4, %1
  br i1 %5, label %12, label %6

6:                                                ; preds = %2
  %.not = icmp eq ptr %4, null
  %.not4 = icmp eq ptr %4, %0
  %or.cond = or i1 %.not, %.not4
  br i1 %or.cond, label %11, label %7

7:                                                ; preds = %6
  %8 = load ptr, ptr %4, align 8, !tbaa !3
  %9 = getelementptr inbounds nuw i8, ptr %8, i64 8
  %10 = load ptr, ptr %9, align 8
  tail call void %10(ptr noundef nonnull align 8 dereferenceable(8) %4) #49
  br label %11

11:                                               ; preds = %7, %6
  store ptr %1, ptr %3, align 8, !tbaa !76
  br label %12

12:                                               ; preds = %2, %11
  ret void
}